; ModuleID = 'bench/qemu/original/stubs_monitor-core.c.ll'
source_filename = "bench/qemu/original/stubs_monitor-core.c.ll"
target datalayout = "e-m:e-p270:32:32-p271:32:32-p272:64:64-i64:64-i128:128-f80:128-n8:16:32:64-S128"
target triple = "x86_64-unknown-linux-gnu"

; Function Attrs: mustprogress nofree norecurse nosync nounwind sspstrong willreturn memory(none) uwtable
define dso_local noalias noundef ptr @monitor_cur() local_unnamed_addr #0 {
entry:
  ret ptr null
}

; Function Attrs: mustprogress nofree norecurse nosync nounwind sspstrong willreturn memory(none) uwtable
define dso_local noalias noundef ptr @monitor_set_cur(ptr noundef readnone captures(none) %co, ptr noundef readnone captures(none) %mon) local_unnamed_addr #0 {
entry:
  ret ptr null
}

; Function Attrs: mustprogress nofree norecurse nosync nounwind sspstrong willreturn memory(none) uwtable
define dso_local void @monitor_init_qmp(ptr noundef readnone captures(none) %chr, i1 noundef zeroext %pretty, ptr noundef readnone captures(none) %errp) local_unnamed_addr #0 {
entry:
  ret void
}

; Function Attrs: mustprogress nofree norecurse nosync nounwind sspstrong willreturn memory(none) uwtable
define dso_local void @qapi_event_emit(i32 noundef %event, ptr noundef readnone captures(none) %qdict) local_unnamed_addr #0 {
entry:
  ret void
}

; Function Attrs: cold nofree noreturn nounwind sspstrong uwtable
define dso_local noundef i32 @monitor_vprintf(ptr noundef readnone captures(none) %mon, ptr noundef readnone captures(none) %fmt, ptr noundef readnone captures(none) %ap) local_unnamed_addr #1 {
entry:
  tail call void @abort() #3
  unreachable
}

; Function Attrs: cold nofree noreturn nounwind
declare void @abort() local_unnamed_addr #2


!llvm.module.flags = !{!0, !1, !2, !3, !4}

!0 = !{i32 1, !"wchar_size", i32 4}
!1 = !{i32 8, !"PIC Level", i32 2}
!2 = !{i32 7, !"PIE Level", i32 2}
!3 = !{i32 7, !"uwtable", i32 2}
!4 = !{i32 7, !"frame-pointer", i32 2}
